; Function Attrs: mustprogress nounwind uwtable
define hidden void @_ZN19java_lang_Throwable18allocate_backtraceE6HandleP10JavaThread(ptr readonly %0, ptr noundef %1) local_unnamed_addr #0 align 2 {
  %3 = alloca %class.BacktraceBuilder, align 8
  %4 = load i8, ptr @StackTraceInThrowable, align 1
  %5 = trunc i8 %4 to i1
  br i1 %5, label %6, label %_ZN16BacktraceBuilderC2EP10JavaThread.exit.thread

6:                                                ; preds = %2
  call void @llvm.memset.p0.i64(ptr noundef nonnull align 8 dereferenceable(49) %3, i8 0, i64 49, i1 false)
  call void @_ZN16BacktraceBuilder6expandEP10JavaThread(ptr noundef nonnull align 8 dereferenceable(64) %3, ptr noundef %1)
  %7 = getelementptr inbounds i8, ptr %1, i64 8
  %8 = load ptr, ptr %7, align 8
  %.not.i = icmp eq ptr %8, null
  br i1 %.not.i, label %9, label %_ZN16BacktraceBuilderC2EP10JavaThread.exit.thread

9:                                                ; preds = %6
  %10 = getelementptr inbounds i8, ptr %3, i64 8
  %11 = load ptr, ptr %10, align 8
  %12 = icmp eq ptr %11, null
  br i1 %12, label %_ZN16BacktraceBuilderC2EP10JavaThread.exit.thread3, label %14

_ZN16BacktraceBuilderC2EP10JavaThread.exit.thread3: ; preds = %9
  store i64 0, ptr %3, align 8
  %13 = getelementptr inbounds i8, ptr %3, i64 52
  store i32 0, ptr %13, align 4
  br label %31

14:                                               ; preds = %9
  %15 = getelementptr inbounds i8, ptr %1, i64 808
  %16 = load ptr, ptr %15, align 8
  %17 = getelementptr inbounds i8, ptr %16, i64 40
  %18 = load ptr, ptr %17, align 8
  %19 = getelementptr inbounds i8, ptr %16, i64 32
  %20 = load ptr, ptr %19, align 8
  %21 = ptrtoint ptr %18 to i64
  %22 = ptrtoint ptr %20 to i64
  %23 = sub i64 %21, %22
  %.not.i.i.i.i.i = icmp ult i64 %23, 8
  br i1 %.not.i.i.i.i.i, label %26, label %24

24:                                               ; preds = %14
  %25 = getelementptr inbounds i8, ptr %20, i64 8
  store ptr %25, ptr %19, align 8
  br label %_ZN16BacktraceBuilderC2EP10JavaThread.exit

26:                                               ; preds = %14
  %27 = call noundef ptr @_ZN5Arena4growEmN17AllocFailStrategy13AllocFailEnumE(ptr noundef nonnull align 8 dereferenceable(48) %16, i64 noundef 8, i32 noundef 0) #19
  %.pre.i = ptrtoint ptr %27 to i64
  br label %_ZN16BacktraceBuilderC2EP10JavaThread.exit

_ZN16BacktraceBuilderC2EP10JavaThread.exit:       ; preds = %24, %26
  %.pre-phi.i = phi i64 [ %.pre.i, %26 ], [ %22, %24 ]
  %.0.i.i.i.i.i = phi ptr [ %27, %26 ], [ %20, %24 ]
  store ptr %11, ptr %.0.i.i.i.i.i, align 8
  %.pr.pre = load ptr, ptr %7, align 8
  %28 = icmp eq ptr %.pr.pre, null
  store i64 %.pre-phi.i, ptr %3, align 8
  %29 = getelementptr inbounds i8, ptr %3, i64 52
  store i32 0, ptr %29, align 4
  %30 = inttoptr i64 %.pre-phi.i to ptr
  br i1 %28, label %31, label %_ZN16BacktraceBuilderC2EP10JavaThread.exit.thread

31:                                               ; preds = %_ZN16BacktraceBuilderC2EP10JavaThread.exit.thread3, %_ZN16BacktraceBuilderC2EP10JavaThread.exit
  %32 = phi ptr [ null, %_ZN16BacktraceBuilderC2EP10JavaThread.exit.thread3 ], [ %30, %_ZN16BacktraceBuilderC2EP10JavaThread.exit ]
  %storemerge.i.i6 = phi i64 [ 0, %_ZN16BacktraceBuilderC2EP10JavaThread.exit.thread3 ], [ %.pre-phi.i, %_ZN16BacktraceBuilderC2EP10JavaThread.exit ]
  %33 = icmp eq ptr %0, null
  br i1 %33, label %_ZNK6HandleclEv.exit, label %34

34:                                               ; preds = %31
  %35 = load ptr, ptr %0, align 8
  br label %_ZNK6HandleclEv.exit

_ZNK6HandleclEv.exit:                             ; preds = %31, %34
  %36 = phi ptr [ %35, %34 ], [ null, %31 ]
  %37 = icmp eq i64 %storemerge.i.i6, 0
  br i1 %37, label %_ZN16BacktraceBuilder9backtraceEv.exit, label %38

38:                                               ; preds = %_ZNK6HandleclEv.exit
  %39 = load ptr, ptr %32, align 8
  br label %_ZN16BacktraceBuilder9backtraceEv.exit

_ZN16BacktraceBuilder9backtraceEv.exit:           ; preds = %_ZNK6HandleclEv.exit, %38
  %40 = phi ptr [ %39, %38 ], [ null, %_ZNK6HandleclEv.exit ]
  %41 = load i32, ptr @_ZN19java_lang_Throwable17_backtrace_offsetE, align 4
  call void @_ZN7oopDesc21release_obj_field_putEiPS_(ptr noundef nonnull align 8 dereferenceable(16) %36, i32 noundef %41, ptr noundef %40) #19
  br label %_ZN16BacktraceBuilderC2EP10JavaThread.exit.thread

_ZN16BacktraceBuilderC2EP10JavaThread.exit.thread: ; preds = %6, %_ZN16BacktraceBuilder9backtraceEv.exit, %_ZN16BacktraceBuilderC2EP10JavaThread.exit, %2
  ret void
}